; ModuleID = 'source-C-CXX/25/725.c'
source_filename = "source-C-CXX/25/725.c"
target datalayout = "e-m:e-p270:32:32-p271:32:32-p272:64:64-i64:64-f80:128-n8:16:32:64-S128"
target triple = "x86_64-pc-linux-gnu"

; Function Attrs: nounwind sspstrong uwtable
define dso_local i32 @main() local_unnamed_addr #0 {
  %1 = alloca [101 x i8], align 16
  %2 = getelementptr inbounds [101 x i8], [101 x i8]* %1, i64 0, i64 0
  call void @llvm.lifetime.start.p0i8(i64 101, i8* nonnull %2) #5
  %3 = call i32 (i8*, ...) bitcast (i32 (...)* @gets to i32 (i8*, ...)*)(i8* nonnull %2) #5
  %4 = load i8, i8* %2, align 16
  %5 = icmp eq i8 %4, 0
  br i1 %5, label %43, label %6

6:                                                ; preds = %0, %40
  %7 = phi i8 [ %42, %40 ], [ %4, %0 ]
  %8 = phi i32 [ %36, %40 ], [ 0, %0 ]
  %9 = icmp eq i8 %7, 32
  br i1 %9, label %12, label %10

10:                                               ; preds = %6
  %11 = sext i8 %7 to i32
  br label %32

12:                                               ; preds = %6
  %13 = add nsw i32 %8, 1
  %14 = sext i32 %13 to i64
  %15 = getelementptr inbounds [101 x i8], [101 x i8]* %1, i64 0, i64 %14
  %16 = load i8, i8* %15, align 1, !tbaa !5
  %17 = icmp eq i8 %16, 32
  br i1 %17, label %18, label %32

18:                                               ; preds = %12
  %19 = sext i32 %8 to i64
  br label %20

20:                                               ; preds = %18, %20
  %21 = phi i64 [ %19, %18 ], [ %22, %20 ]
  %22 = add nsw i64 %21, 1
  %23 = getelementptr inbounds [101 x i8], [101 x i8]* %1, i64 0, i64 %22
  %24 = load i8, i8* %23, align 1, !tbaa !5
  %25 = icmp eq i8 %24, 32
  br i1 %25, label %20, label %26, !llvm.loop !8

26:                                               ; preds = %20
  %27 = getelementptr inbounds [101 x i8], [101 x i8]* %1, i64 0, i64 %22
  %28 = trunc i64 %22 to i32
  %29 = call i32 @putchar(i32 32)
  %30 = load i8, i8* %27, align 1, !tbaa !5
  %31 = sext i8 %30 to i32
  br label %32

32:                                               ; preds = %12, %10, %26
  %33 = phi i32 [ %11, %10 ], [ %31, %26 ], [ 32, %12 ]
  %34 = phi i32 [ %8, %10 ], [ %28, %26 ], [ %8, %12 ]
  %35 = call i32 @putchar(i32 %33)
  %36 = add nsw i32 %34, 1
  %37 = sext i32 %36 to i64
  %38 = call i64 @strlen(i8* noundef nonnull %2) #6
  %39 = icmp ugt i64 %38, %37
  br i1 %39, label %40, label %43, !llvm.loop !10

40:                                               ; preds = %32
  %41 = getelementptr inbounds [101 x i8], [101 x i8]* %1, i64 0, i64 %37
  %42 = load i8, i8* %41, align 1, !tbaa !5
  br label %6

43:                                               ; preds = %32, %0
  call void @llvm.lifetime.end.p0i8(i64 101, i8* nonnull %2) #5
  ret i32 0
}

; Function Attrs: argmemonly mustprogress nofree nosync nounwind willreturn
declare void @llvm.lifetime.start.p0i8(i64 immarg, i8* nocapture) #1

declare i32 @gets(...) local_unnamed_addr #2

; Function Attrs: argmemonly mustprogress nofree nounwind readonly willreturn
declare i64 @strlen(i8* nocapture) local_unnamed_addr #3

; Function Attrs: argmemonly mustprogress nofree nosync nounwind willreturn
declare void @llvm.lifetime.end.p0i8(i64 immarg, i8* nocapture) #1

; Function Attrs: nofree nounwind
declare noundef i32 @putchar(i32 noundef) local_unnamed_addr #4


!llvm.module.flags = !{!0, !1, !2, !3}
!llvm.ident = !{!4}

!0 = !{i32 1, !"wchar_size", i32 4}
!1 = !{i32 7, !"PIC Level", i32 2}
!2 = !{i32 7, !"PIE Level", i32 2}
!3 = !{i32 7, !"uwtable", i32 1}
!4 = !{!"clang version 13.0.0"}
!5 = !{!6, !6, i64 0}
!6 = !{!"omnipotent char", !7, i64 0}
!7 = !{!"Simple C/C++ TBAA"}
!8 = distinct !{!8, !9}
!9 = !{!"llvm.loop.mustprogress"}
!10 = distinct !{!10, !9}
